target datalayout = "e-m:e-p270:32:32-p271:32:32-p272:64:64-i64:64-i128:128-f80:128-n8:16:32:64-S128"
target triple = "x86_64-pc-linux-gnu"

%struct.BitstreamContextLE = type { i64, ptr, ptr, ptr, i32, i32 }

; Function Attrs: inlinehint nounwind uwtable
define internal i32 @bits_priv_refill_64_le(ptr noundef %0) #4 {
  %2 = alloca i32, align 4
  %3 = alloca ptr, align 8
  store ptr %0, ptr %3, align 8, !tbaa !14
  %4 = load ptr, ptr %3, align 8, !tbaa !14
  %5 = getelementptr inbounds nuw %struct.BitstreamContextLE, ptr %4, i32 0, i32 3
  %6 = load ptr, ptr %5, align 8, !tbaa !36
  %7 = load ptr, ptr %3, align 8, !tbaa !14
  %8 = getelementptr inbounds nuw %struct.BitstreamContextLE, ptr %7, i32 0, i32 2
  %9 = load ptr, ptr %8, align 8, !tbaa !39
  %10 = icmp uge ptr %6, %9
  br i1 %10, label %11, label %12

11:                                               ; preds = %1
  store i32 -1, ptr %2, align 4
  br label %25

12:                                               ; preds = %1
  %13 = load ptr, ptr %3, align 8, !tbaa !14
  %14 = getelementptr inbounds nuw %struct.BitstreamContextLE, ptr %13, i32 0, i32 3
  %15 = load ptr, ptr %14, align 8, !tbaa !36
  %16 = load i64, ptr %15, align 1, !tbaa !11
  %17 = load ptr, ptr %3, align 8, !tbaa !14
  %18 = getelementptr inbounds nuw %struct.BitstreamContextLE, ptr %17, i32 0, i32 0
  store i64 %16, ptr %18, align 8, !tbaa !35
  %19 = load ptr, ptr %3, align 8, !tbaa !14
  %20 = getelementptr inbounds nuw %struct.BitstreamContextLE, ptr %19, i32 0, i32 3
  %21 = load ptr, ptr %20, align 8, !tbaa !36
  %22 = getelementptr inbounds i8, ptr %21, i64 8
  store ptr %22, ptr %20, align 8, !tbaa !36
  %23 = load ptr, ptr %3, align 8, !tbaa !14
  %24 = getelementptr inbounds nuw %struct.BitstreamContextLE, ptr %23, i32 0, i32 4
  store i32 64, ptr %24, align 8, !tbaa !33
  store i32 0, ptr %2, align 4
  br label %25

25:                                               ; preds = %12, %11
  %26 = load i32, ptr %2, align 4
  ret i32 %26
}

; Function Attrs: inlinehint nounwind uwtable
define internal i32 @bits_init_le(ptr noundef %0, ptr noundef %1, i32 noundef %2) #4 {
  %4 = alloca i32, align 4
  %5 = alloca ptr, align 8
  %6 = alloca ptr, align 8
  %7 = alloca i32, align 4
  %8 = alloca i32, align 4
  %9 = alloca i32, align 4
  store ptr %0, ptr %5, align 8, !tbaa !14
  store ptr %1, ptr %6, align 8, !tbaa !4
  store i32 %2, ptr %7, align 4, !tbaa !9
  call void @llvm.lifetime.start.p0(i64 4, ptr %8) #5
  %10 = load i32, ptr %7, align 4, !tbaa !9
  %11 = icmp ugt i32 %10, 2147483640
  br i1 %11, label %15, label %12

12:                                               ; preds = %3
  %13 = load ptr, ptr %6, align 8, !tbaa !4
  %14 = icmp ne ptr %13, null
  br i1 %14, label %22, label %15

15:                                               ; preds = %12, %3
  %16 = load ptr, ptr %5, align 8, !tbaa !14
  %17 = getelementptr inbounds nuw %struct.BitstreamContextLE, ptr %16, i32 0, i32 1
  store ptr null, ptr %17, align 8, !tbaa !37
  %18 = load ptr, ptr %5, align 8, !tbaa !14
  %19 = getelementptr inbounds nuw %struct.BitstreamContextLE, ptr %18, i32 0, i32 3
  store ptr null, ptr %19, align 8, !tbaa !36
  %20 = load ptr, ptr %5, align 8, !tbaa !14
  %21 = getelementptr inbounds nuw %struct.BitstreamContextLE, ptr %20, i32 0, i32 4
  store i32 0, ptr %21, align 8, !tbaa !33
  store i32 -1094995529, ptr %4, align 4
  store i32 1, ptr %9, align 4
  br label %49

22:                                               ; preds = %12
  %23 = load i32, ptr %7, align 4, !tbaa !9
  %24 = add i32 %23, 7
  %25 = lshr i32 %24, 3
  store i32 %25, ptr %8, align 4, !tbaa !9
  %26 = load ptr, ptr %6, align 8, !tbaa !4
  %27 = load ptr, ptr %5, align 8, !tbaa !14
  %28 = getelementptr inbounds nuw %struct.BitstreamContextLE, ptr %27, i32 0, i32 1
  store ptr %26, ptr %28, align 8, !tbaa !37
  %29 = load ptr, ptr %6, align 8, !tbaa !4
  %30 = load i32, ptr %8, align 4, !tbaa !9
  %31 = zext i32 %30 to i64
  %32 = getelementptr inbounds nuw i8, ptr %29, i64 %31
  %33 = load ptr, ptr %5, align 8, !tbaa !14
  %34 = getelementptr inbounds nuw %struct.BitstreamContextLE, ptr %33, i32 0, i32 2
  store ptr %32, ptr %34, align 8, !tbaa !39
  %35 = load ptr, ptr %5, align 8, !tbaa !14
  %36 = getelementptr inbounds nuw %struct.BitstreamContextLE, ptr %35, i32 0, i32 1
  %37 = load ptr, ptr %36, align 8, !tbaa !37
  %38 = load ptr, ptr %5, align 8, !tbaa !14
  %39 = getelementptr inbounds nuw %struct.BitstreamContextLE, ptr %38, i32 0, i32 3
  store ptr %37, ptr %39, align 8, !tbaa !36
  %40 = load i32, ptr %7, align 4, !tbaa !9
  %41 = load ptr, ptr %5, align 8, !tbaa !14
  %42 = getelementptr inbounds nuw %struct.BitstreamContextLE, ptr %41, i32 0, i32 5
  store i32 %40, ptr %42, align 4, !tbaa !38
  %43 = load ptr, ptr %5, align 8, !tbaa !14
  %44 = getelementptr inbounds nuw %struct.BitstreamContextLE, ptr %43, i32 0, i32 4
  store i32 0, ptr %44, align 8, !tbaa !33
  %45 = load ptr, ptr %5, align 8, !tbaa !14
  %46 = getelementptr inbounds nuw %struct.BitstreamContextLE, ptr %45, i32 0, i32 0
  store i64 0, ptr %46, align 8, !tbaa !35
  %47 = load ptr, ptr %5, align 8, !tbaa !14
  %48 = call i32 @bits_priv_refill_64_le(ptr noundef %47)
  store i32 0, ptr %4, align 4
  store i32 1, ptr %9, align 4
  br label %49

49:                                               ; preds = %22, %15
  call void @llvm.lifetime.end.p0(i64 4, ptr %8) #5
  %50 = load i32, ptr %4, align 4
  ret i32 %50
}

; Function Attrs: inlinehint nounwind uwtable
define internal i32 @bits_init8_le(ptr noundef %0, ptr noundef %1, i32 noundef %2) #4 {
  %4 = alloca i32, align 4
  %5 = alloca ptr, align 8
  %6 = alloca ptr, align 8
  %7 = alloca i32, align 4
  store ptr %0, ptr %5, align 8, !tbaa !14
  store ptr %1, ptr %6, align 8, !tbaa !4
  store i32 %2, ptr %7, align 4, !tbaa !9
  %8 = load i32, ptr %7, align 4, !tbaa !9
  %9 = icmp ugt i32 %8, 268435455
  br i1 %9, label %10, label %11

10:                                               ; preds = %3
  store i32 -1094995529, ptr %4, align 4
  br label %17

11:                                               ; preds = %3
  %12 = load ptr, ptr %5, align 8, !tbaa !14
  %13 = load ptr, ptr %6, align 8, !tbaa !4
  %14 = load i32, ptr %7, align 4, !tbaa !9
  %15 = mul i32 %14, 8
  %16 = call i32 @bits_init_le(ptr noundef %12, ptr noundef %13, i32 noundef %15)
  store i32 %16, ptr %4, align 4
  br label %17

17:                                               ; preds = %11, %10
  %18 = load i32, ptr %4, align 4
  ret i32 %18
}

; Function Attrs: nounwind uwtable
define i32 @avpriv_tak_parse_streaminfo(ptr noundef %0, ptr noundef %1, i32 noundef %2) #0 {
  %4 = alloca i32, align 4
  %5 = alloca ptr, align 8
  %6 = alloca ptr, align 8
  %7 = alloca i32, align 4
  %8 = alloca %struct.BitstreamContextLE, align 8
  %9 = alloca i32, align 4
  %10 = alloca i32, align 4
  store ptr %0, ptr %5, align 8, !tbaa !12
  store ptr %1, ptr %6, align 8, !tbaa !4
  store i32 %2, ptr %7, align 4, !tbaa !9
  call void @llvm.lifetime.start.p0(i64 40, ptr %8) #5
  call void @llvm.lifetime.start.p0(i64 4, ptr %9) #5
  %11 = load ptr, ptr %6, align 8, !tbaa !4
  %12 = load i32, ptr %7, align 4, !tbaa !9
  %13 = call i32 @bits_init8_le(ptr noundef %8, ptr noundef %11, i32 noundef %12)
  store i32 %13, ptr %9, align 4, !tbaa !9
  %14 = load i32, ptr %9, align 4, !tbaa !9
  %15 = icmp slt i32 %14, 0
  br i1 %15, label %16, label %17

16:                                               ; preds = %3
  store i32 -1094995529, ptr %4, align 4
  store i32 1, ptr %10, align 4
  br label %20

17:                                               ; preds = %3
  %18 = load ptr, ptr %5, align 8, !tbaa !12
  %19 = call i32 @tak_parse_streaminfo(ptr noundef %18, ptr noundef %8)
  store i32 %19, ptr %4, align 4
  store i32 1, ptr %10, align 4
  br label %20

20:                                               ; preds = %17, %16
  call void @llvm.lifetime.end.p0(i64 4, ptr %9) #5
  call void @llvm.lifetime.end.p0(i64 40, ptr %8) #5
  %21 = load i32, ptr %4, align 4
  ret i32 %21
}