; Function Attrs: nofree norecurse nosync nounwind memory(read, argmem: readwrite, inaccessiblemem: none) uwtable
define range(i32 -1094995529, 1) i32 @avpriv_tak_parse_streaminfo(ptr noundef writeonly captures(none) %0, ptr noundef %1, i32 noundef %2) local_unnamed_addr #4 {
  %4 = alloca %struct.BitstreamContextLE, align 8
  call void @llvm.lifetime.start.p0(i64 40, ptr nonnull %4) #5
  %5 = icmp ugt i32 %2, 268435455
  %.not.i.i = icmp eq ptr %1, null
  %or.cond = or i1 %5, %.not.i.i
  br i1 %or.cond, label %bits_init8_le.exit.thread, label %6

6:                                                ; preds = %3
  %7 = shl nuw nsw i32 %2, 3
  %8 = getelementptr inbounds nuw i8, ptr %4, i64 8
  store ptr %1, ptr %8, align 8, !tbaa !7
  %9 = zext nneg i32 %2 to i64
  %10 = getelementptr inbounds nuw i8, ptr %1, i64 %9
  %11 = getelementptr inbounds nuw i8, ptr %4, i64 16
  store ptr %10, ptr %11, align 8, !tbaa !13
  %12 = getelementptr inbounds nuw i8, ptr %4, i64 24
  store ptr %1, ptr %12, align 8, !tbaa !14
  %13 = getelementptr inbounds nuw i8, ptr %4, i64 36
  store i32 %7, ptr %13, align 4, !tbaa !15
  %14 = getelementptr inbounds nuw i8, ptr %4, i64 32
  store i32 0, ptr %14, align 8, !tbaa !16
  store i64 0, ptr %4, align 8, !tbaa !17
  %.not.i.not.i.i = icmp eq i32 %2, 0
  br i1 %.not.i.not.i.i, label %bits_init8_le.exit, label %15

15:                                               ; preds = %6
  %16 = load i64, ptr %1, align 1, !tbaa !4
  store i64 %16, ptr %4, align 8, !tbaa !17
  %17 = getelementptr inbounds nuw i8, ptr %1, i64 8
  store ptr %17, ptr %12, align 8, !tbaa !14
  store i32 64, ptr %14, align 8, !tbaa !16
  br label %bits_init8_le.exit

bits_init8_le.exit:                               ; preds = %15, %6
  %18 = call fastcc i32 @tak_parse_streaminfo(ptr noundef %0, ptr noundef nonnull %4)
  br label %bits_init8_le.exit.thread

bits_init8_le.exit.thread:                        ; preds = %3, %bits_init8_le.exit
  %.0 = phi i32 [ %18, %bits_init8_le.exit ], [ -1094995529, %3 ]
  call void @llvm.lifetime.end.p0(i64 40, ptr nonnull %4) #5
  ret i32 %.0
}